; Function Attrs: mustprogress nounwind uwtable
define dso_local void @_ZN4llvm11Instruction14dropDbgRecordsEv(ptr nocapture noundef nonnull readonly align 8 dereferenceable(72) %0) local_unnamed_addr #3 align 2 {
  %2 = getelementptr inbounds nuw i8, ptr %0, i64 64
  %3 = load ptr, ptr %2, align 8
  %.not = icmp eq ptr %3, null
  br i1 %.not, label %5, label %4

4:                                                ; preds = %1
  tail call void @_ZN4llvm9DbgMarker14dropDbgRecordsEv(ptr noundef nonnull align 8 dereferenceable(24) %3) #21
  br label %5

5:                                                ; preds = %4, %1
  ret void
}